(lp0
S'CITI CORP'
p1
aS'CODENATION'
p2
aS'DE SHAW'
p3
aS'FIDELITY'
p4
aS'Flock'
p5
aS'Futures First'
p6
aS'Goldman Sachs'
p7
aS'H U L'
p8
aS'Indus Valley Partners'
p9
aS'Media.net'
p10
aS'Microsoft'
p11
aS'Morgan Stanley'
p12
aS'NUTANIX'
p13
aS'NVIDIA'
p14
aS'Smartprix'
p15
aS'Societe Generale'
p16
aS'Tata Consultancy Services'
p17
aS'Texas Intruments'
p18
aS'UBER'
p19
aS'UNITED HEALTH GROUP'
p20
aS'Walmarts Labs'
p21
a.